///////////////////////////////////////////////////////////////////////////////
//
// IAR ANSI C/C++ Compiler V9.50.2.385/W64 for ARM        28/Nov/2025  22:44:15
// Copyright 1999-2024 IAR Systems AB.
//
//    Cpu mode     =  thumb
//    Endian       =  little
//    Source file  =
//        D:\@@@@@@@ @@@@\@@@@@@@@\@@@@@\@@@@@@@@@ @@@@\@@@@@@@@@@@ @@@@@@@@@@@
//        @@@@@@@@@@@@@
//        @@@@@@@@@\lab2\Lab1\Application\Mode\RunningLightMode.cpp
//    Command line =
//        -f "D:\@@@@@@@ @@@@\@@@@@@@@\@@@@@\@@@@@@@@@ @@@@\@@@@@@@@@@@
//        @@@@@@@@@@@ @@@@@@@@@@@@@
//        @@@@@@@@@\lab2\Lab1\Debug\Obj\Mode_16823006984759215243.dir\RunningLightMode.o.rsp"
//        ("D:\@@@@@@@ @@@@\@@@@@@@@\@@@@@\@@@@@@@@@ @@@@\@@@@@@@@@@@
//        @@@@@@@@@@@ @@@@@@@@@@@@@
//        @@@@@@@@@\lab2\Lab1\Application\Mode\RunningLightMode.cpp" -lC
//        "D:\@@@@@@@ @@@@\@@@@@@@@\@@@@@\@@@@@@@@@ @@@@\@@@@@@@@@@@
//        @@@@@@@@@@@ @@@@@@@@@@@@@
//        @@@@@@@@@\lab2\Lab1\Debug\List\Mode_16823006984759215243.dir" -lA
//        "D:\@@@@@@@ @@@@\@@@@@@@@\@@@@@\@@@@@@@@@ @@@@\@@@@@@@@@@@
//        @@@@@@@@@@@ @@@@@@@@@@@@@
//        @@@@@@@@@\lab2\Lab1\Debug\List\Mode_16823006984759215243.dir" -o
//        "D:\@@@@@@@ @@@@\@@@@@@@@\@@@@@\@@@@@@@@@ @@@@\@@@@@@@@@@@
//        @@@@@@@@@@@ @@@@@@@@@@@@@
//        @@@@@@@@@\lab2\Lab1\Debug\Obj\Mode_16823006984759215243.dir" --no_cse
//        --no_unroll --no_inline --no_code_motion --no_tbaa --no_clustering
//        --no_scheduling --debug --endian=little --cpu=Cortex-M4 -e
//        --fpu=VFPv4_sp --dlib_config
//        E:\IAR_Embedded_Workbench_for_ARM\arm\inc\c\DLib_Config_Normal.h -I
//        "D:\@@@@@@@ @@@@\@@@@@@@@\@@@@@\@@@@@@@@@ @@@@\@@@@@@@@@@@
//        @@@@@@@@@@@ @@@@@@@@@@@@@ @@@@@@@@@\lab2\Lab1\Common\\" -I
//        "D:\@@@@@@@ @@@@\@@@@@@@@\@@@@@\@@@@@@@@@ @@@@\@@@@@@@@@@@
//        @@@@@@@@@@@ @@@@@@@@@@@@@
//        @@@@@@@@@\lab2\Lab1\AHardware\Registers\STM32F411\FieldValues\\" -I
//        "D:\@@@@@@@ @@@@\@@@@@@@@\@@@@@\@@@@@@@@@ @@@@\@@@@@@@@@@@
//        @@@@@@@@@@@ @@@@@@@@@@@@@
//        @@@@@@@@@\lab2\Lab1\AHardware\Registers\STM32F411\\" -I "D:\@@@@@@@
//        @@@@\@@@@@@@@\@@@@@\@@@@@@@@@ @@@@\@@@@@@@@@@@ @@@@@@@@@@@
//        @@@@@@@@@@@@@ @@@@@@@@@\lab2\Lab1\AHardware\Registers\\" -I
//        "D:\@@@@@@@ @@@@\@@@@@@@@\@@@@@\@@@@@@@@@ @@@@\@@@@@@@@@@@
//        @@@@@@@@@@@ @@@@@@@@@@@@@
//        @@@@@@@@@\lab2\Lab1\AHardware\Registers\CortexM4\\" -I "D:\@@@@@@@
//        @@@@\@@@@@@@@\@@@@@\@@@@@@@@@ @@@@\@@@@@@@@@@@ @@@@@@@@@@@
//        @@@@@@@@@@@@@
//        @@@@@@@@@\lab2\Lab1\AHardware\Registers\CortexM4\FieldValues\\" -I
//        "D:\@@@@@@@ @@@@\@@@@@@@@\@@@@@\@@@@@@@@@ @@@@\@@@@@@@@@@@
//        @@@@@@@@@@@ @@@@@@@@@@@@@
//        @@@@@@@@@\lab2\Lab1\Application\Led\Contracts\\" -I "D:\@@@@@@@
//        @@@@\@@@@@@@@\@@@@@\@@@@@@@@@ @@@@\@@@@@@@@@@@ @@@@@@@@@@@
//        @@@@@@@@@@@@@ @@@@@@@@@\lab2\Lab1\Application\Led\\" -I "D:\@@@@@@@
//        @@@@\@@@@@@@@\@@@@@\@@@@@@@@@ @@@@\@@@@@@@@@@@ @@@@@@@@@@@
//        @@@@@@@@@@@@@ @@@@@@@@@\lab2\Lab1\Application\Mode\Contracts\\" -I
//        "D:\@@@@@@@ @@@@\@@@@@@@@\@@@@@\@@@@@@@@@ @@@@\@@@@@@@@@@@
//        @@@@@@@@@@@ @@@@@@@@@@@@@ @@@@@@@@@\lab2\Lab1\Application\Button\\"
//        -I "D:\@@@@@@@ @@@@\@@@@@@@@\@@@@@\@@@@@@@@@ @@@@\@@@@@@@@@@@
//        @@@@@@@@@@@ @@@@@@@@@@@@@
//        @@@@@@@@@\lab2\Lab1\Application\Button\Contrats\\" -I "D:\@@@@@@@
//        @@@@\@@@@@@@@\@@@@@\@@@@@@@@@ @@@@\@@@@@@@@@@@ @@@@@@@@@@@
//        @@@@@@@@@@@@@ @@@@@@@@@\lab2\Lab1\Application\LcdController\\" -I
//        "D:\@@@@@@@ @@@@\@@@@@@@@\@@@@@\@@@@@@@@@ @@@@\@@@@@@@@@@@
//        @@@@@@@@@@@ @@@@@@@@@@@@@
//        @@@@@@@@@\lab2\Lab1\Application\LcdController\Contracts\\" -I
//        "D:\@@@@@@@ @@@@\@@@@@@@@\@@@@@\@@@@@@@@@ @@@@\@@@@@@@@@@@
//        @@@@@@@@@@@ @@@@@@@@@@@@@ @@@@@@@@@\lab2\Lab1\Application\Mode\\" -On
//        --c++ --no_exceptions --no_rtti) --dependencies=n "D:\@@@@@@@
//        @@@@\@@@@@@@@\@@@@@\@@@@@@@@@ @@@@\@@@@@@@@@@@ @@@@@@@@@@@
//        @@@@@@@@@@@@@
//        @@@@@@@@@\lab2\Lab1\Debug\Obj\Mode_16823006984759215243.dir\RunningLightMode.o.iar_deps"
//    Locale       =  C
//    List file    =
//        D:\@@@@@@@ @@@@\@@@@@@@@\@@@@@\@@@@@@@@@ @@@@\@@@@@@@@@@@ @@@@@@@@@@@
//        @@@@@@@@@@@@@
//        @@@@@@@@@\lab2\Lab1\Debug\List\Mode_16823006984759215243.dir\RunningLightMode.s
//
///////////////////////////////////////////////////////////////////////////////

        RTMODEL "__CPP_Exceptions", "Disabled"
        RTMODEL "__CPP_Language", "C++14"
        RTMODEL "__CPP_Library", "DLib"
        RTMODEL "__CPP_Runtime", "1"
        RTMODEL "__SystemLibrary", "DLib"
        RTMODEL "__dlib_file_descriptor", "0"
        RTMODEL "__dlib_full_locale_support", "0"
        RTMODEL "__dlib_version", "6"
        AAPCS BASE,INTERWORK,VFP
        PRESERVE8
        REQUIRE8

        #define SHT_PROGBITS 0x1

        EXTERN _ZN10CommonMode4InitEv
        EXTERN _ZN10CommonModeC2ERKSt5arrayIP12ILedToggableLj4EERKS0_IP9ILedOnOffLj4EE
        EXTERN _ZTI10CommonMode
        EXTERN _ZTVN10__cxxabiv117__class_type_infoE
        EXTERN _ZTVN10__cxxabiv120__si_class_type_infoE

        PUBLIC _ZN16RunningLightMode7ExecuteEv
        PUBLIC _ZN16RunningLightModeC1ERKSt5arrayIP12ILedToggableLj4EERKS0_IP9ILedOnOffLj4EE
        PUBLIC _ZN16RunningLightModeC2ERKSt5arrayIP12ILedToggableLj4EERKS0_IP9ILedOnOffLj4EE
        PUBLIC _ZNKSt5arrayIP12ILedToggableLj4EE4sizeEv
        PUBLIC _ZNKSt5arrayIP12ILedToggableLj4EEixEj
        PUBLIC _ZSt4sizeISt5arrayIP12ILedToggableLj4EEEDTcldtfp_4sizeEERKT_
        PUBLIC _ZTI12ILedToggable
        PUBLIC _ZTI16RunningLightMode
        PUBLIC _ZTI5IMode
        PUBLIC _ZTISt10ctype_base
        PUBLIC _ZTS12ILedToggable
        PUBLIC _ZTS16RunningLightMode
        PUBLIC _ZTS5IMode
        PUBLIC _ZTSSt10ctype_base
        PUBLIC _ZTV16RunningLightMode
        
          CFI Names cfiNames0
          CFI StackFrame CFA R13 DATA
          CFI Resource R0:32, R1:32, R2:32, R3:32, R4:32, R5:32, R6:32, R7:32
          CFI Resource R8:32, R9:32, R10:32, R11:32, R12:32, R13:32, R14:32
          CFI Resource D0:64, D1:64, D2:64, D3:64, D4:64, D5:64, D6:64, D7:64
          CFI Resource D8:64, D9:64, D10:64, D11:64, D12:64, D13:64, D14:64
          CFI Resource D15:64
          CFI EndNames cfiNames0
        
          CFI Common cfiCommon0 Using cfiNames0
          CFI CodeAlign 2
          CFI DataAlign 4
          CFI ReturnAddress R14 CODE
          CFI CFA R13+0
          CFI R0 Undefined
          CFI R1 Undefined
          CFI R2 Undefined
          CFI R3 Undefined
          CFI R4 SameValue
          CFI R5 SameValue
          CFI R6 SameValue
          CFI R7 SameValue
          CFI R8 SameValue
          CFI R9 SameValue
          CFI R10 SameValue
          CFI R11 SameValue
          CFI R12 Undefined
          CFI R14 SameValue
          CFI D0 Undefined
          CFI D1 Undefined
          CFI D2 Undefined
          CFI D3 Undefined
          CFI D4 Undefined
          CFI D5 Undefined
          CFI D6 Undefined
          CFI D7 Undefined
          CFI D8 SameValue
          CFI D9 SameValue
          CFI D10 SameValue
          CFI D11 SameValue
          CFI D12 SameValue
          CFI D13 SameValue
          CFI D14 SameValue
          CFI D15 SameValue
          CFI EndCommon cfiCommon0
        
// D:\@@@@@@@ @@@@\@@@@@@@@\@@@@@\@@@@@@@@@ @@@@\@@@@@@@@@@@ @@@@@@@@@@@ @@@@@@@@@@@@@ @@@@@@@@@\lab2\Lab1\Application\Mode\RunningLightMode.cpp
//    1 #include <cassert>
//    2 #include "RunningLightMode.h"
//    3 #include "ILedToggable.h" // for ILedToggable
//    4 #include "ILedOnOff.h" // for ILedOnOff
//    5 

        SECTION `.text`:CODE:NOROOT(1)
          CFI Block cfiBlock0 Using cfiCommon0
          CFI Function _ZN16RunningLightModeC2ERKSt5arrayIP12ILedToggableLj4EERKS0_IP9ILedOnOffLj4EE
        THUMB
// __vfp RunningLightMode::subobject RunningLightMode(tLeds const &, tLedsOnOff const &)
_ZN16RunningLightModeC2ERKSt5arrayIP12ILedToggableLj4EERKS0_IP9ILedOnOffLj4EE:
        PUSH     {R4,LR}        
          CFI R14 Frame(CFA, -4)
          CFI R4 Frame(CFA, -8)
          CFI CFA R13+8
        MOVS     R4,R0          
        MOVS     R0,R4          
          CFI FunCall _ZN16RunningLightModeC1ERKSt5arrayIP12ILedToggableLj4EERKS0_IP9ILedOnOffLj4EE
        BL       _ZN16RunningLightModeC1ERKSt5arrayIP12ILedToggableLj4EERKS0_IP9ILedOnOffLj4EE
        POP      {R4,PC}        
          CFI EndBlock cfiBlock0

        SECTION `.text`:CODE:NOROOT(1)
          CFI Block cfiBlock1 Using cfiCommon0
          CFI Function _ZN16RunningLightModeC1ERKSt5arrayIP12ILedToggableLj4EERKS0_IP9ILedOnOffLj4EE
        THUMB
//    6 RunningLightMode::RunningLightMode(const tLeds& leds, const tLedsOnOff& ledsOnOff):
//    7     CommonMode(leds, ledsOnOff)
//    8     {
_ZN16RunningLightModeC1ERKSt5arrayIP12ILedToggableLj4EERKS0_IP9ILedOnOffLj4EE:
        PUSH     {R4-R6,LR}     
          CFI R14 Frame(CFA, -4)
          CFI R6 Frame(CFA, -8)
          CFI R5 Frame(CFA, -12)
          CFI R4 Frame(CFA, -16)
          CFI CFA R13+16
        MOVS     R4,R0          
        MOVS     R5,R1          
        MOVS     R6,R2          
        MOVS     R2,R6          
        MOVS     R1,R5          
        MOVS     R0,R4          
          CFI FunCall _ZN10CommonModeC2ERKSt5arrayIP12ILedToggableLj4EERKS0_IP9ILedOnOffLj4EE
        BL       _ZN10CommonModeC2ERKSt5arrayIP12ILedToggableLj4EERKS0_IP9ILedOnOffLj4EE
        LDR.N    R0,??DataTable1
        STR      R0,[R4, #+0]   
//    9       
//   10     }
        MOVS     R0,R4          
        POP      {R4-R6,PC}     
          CFI EndBlock cfiBlock1

        SECTION `.text`:CODE:NOROOT(2)
        SECTION_TYPE SHT_PROGBITS, 0
        DATA
??DataTable1:
        DATA32
        DC32     _ZTV16RunningLightMode+8

        SECTION `.text`:CODE:NOROOT(1)
          CFI Block cfiBlock2 Using cfiCommon0
          CFI Function _ZN16RunningLightMode7ExecuteEv
        THUMB
//   11 void RunningLightMode::RunningLightMode::Execute()
//   12     {
_ZN16RunningLightMode7ExecuteEv:
        PUSH     {R4,LR}        
          CFI R14 Frame(CFA, -4)
          CFI R4 Frame(CFA, -8)
          CFI CFA R13+8
        MOVS     R4,R0          
//   13     mLeds[mCurrentLedNumber++]->Toggle();
        LDR      R1,[R4, #+12]  
        ADDS     R0,R1,#+1      
        STR      R0,[R4, #+12]  
        LDR      R0,[R4, #+4]   
          CFI FunCall _ZNKSt5arrayIP12ILedToggableLj4EEixEj
        BL       _ZNKSt5arrayIP12ILedToggableLj4EEixEj
        LDR      R0,[R0, #+0]   
        LDR      R1,[R0, #+0]   
        LDR      R1,[R1, #+0]   
          CFI IndirectCall
        BLX      R1             
//   14     if (mCurrentLedNumber == std::size(mLeds))
        LDR      R0,[R4, #+4]   
          CFI FunCall _ZSt4sizeISt5arrayIP12ILedToggableLj4EEEDTcldtfp_4sizeEERKT_
        BL       _ZSt4sizeISt5arrayIP12ILedToggableLj4EEEDTcldtfp_4sizeEERKT_
        LDR      R1,[R4, #+12]  
        CMP      R1,R0          
        BNE.N    ??Execute_0    
//   15     {
//   16       mCurrentLedNumber = 0;
        MOVS     R0,#+0         
        STR      R0,[R4, #+12]  
//   17     }
//   18   }
??Execute_0:
        POP      {R4,PC}        
          CFI EndBlock cfiBlock2

        SECTION `.text`:CODE:REORDER:NOROOT(1)
        SECTION_GROUP _ZSt4sizeISt5arrayIP12ILedToggableLj4EEEDTcldtfp_4sizeEERKT_
          CFI Block cfiBlock3 Using cfiCommon0
          CFI Function _ZSt4sizeISt5arrayIP12ILedToggableLj4EEEDTcldtfp_4sizeEERKT_
        THUMB
// __vfp auto std::size<tLeds>(tLeds const &)->size_t
_ZSt4sizeISt5arrayIP12ILedToggableLj4EEEDTcldtfp_4sizeEERKT_:
        PUSH     {R4,LR}        
          CFI R14 Frame(CFA, -4)
          CFI R4 Frame(CFA, -8)
          CFI CFA R13+8
        MOVS     R4,R0          
        MOVS     R0,R4          
          CFI FunCall _ZNKSt5arrayIP12ILedToggableLj4EE4sizeEv
        BL       _ZNKSt5arrayIP12ILedToggableLj4EE4sizeEv
        POP      {R4,PC}        
          CFI EndBlock cfiBlock3

        SECTION `.text`:CODE:REORDER:NOROOT(1)
        SECTION_GROUP _ZNKSt5arrayIP12ILedToggableLj4EE4sizeEv
          CFI Block cfiBlock4 Using cfiCommon0
          CFI Function _ZNKSt5arrayIP12ILedToggableLj4EE4sizeEv
          CFI NoCalls
        THUMB
// __vfp size_t std::array<ILedToggable *, 4U>::size() const noexcept
_ZNKSt5arrayIP12ILedToggableLj4EE4sizeEv:
        MOVS     R1,R0          
        MOVS     R0,#+4         
        BX       LR             
          CFI EndBlock cfiBlock4

        SECTION `.text`:CODE:REORDER:NOROOT(1)
        SECTION_GROUP _ZNKSt5arrayIP12ILedToggableLj4EEixEj
          CFI Block cfiBlock5 Using cfiCommon0
          CFI Function _ZNKSt5arrayIP12ILedToggableLj4EEixEj
          CFI NoCalls
        THUMB
// __vfp ILedToggable *const & std::array<ILedToggable *, 4U>::operator[](size_t) const
_ZNKSt5arrayIP12ILedToggableLj4EEixEj:
        ADD      R0,R0,R1, LSL #+2
        BX       LR             
          CFI EndBlock cfiBlock5

        SECTION `.iar_vfe_vtableinfo_ZTV16RunningLightMode`:DATA:NOALLOC:NOROOT(2)
        SECTION_TYPE SHT_PROGBITS, 0
        SECTION_GROUP _ZTV16RunningLightMode
        DATA
        DC32    _ZTV16RunningLightMode
        DC32    4
        DC32    3
        DC32    _ZTI10CommonMode
        DC32    0
        DC32    1
        DC32    _ZTI16RunningLightMode
        DC32    1
        DC32    2
        DC32    0
        DC32    _ZTI16RunningLightMode
        DC32    1
        DC32    2
        DC32    0
        DC32    _ZTI5IMode
        DC32    0
        DC32    1
        DC32    _ZTI10CommonMode
        DC32    0
        DC32    1
        DC32    _ZTI16RunningLightMode
        DC32    1
        DC32    2
        DC32    0

        SECTION `.iar_vfe_vcallinfo_ZN16RunningLightMode7ExecuteEv`:DATA:NOALLOC:NOROOT(2)
        SECTION_TYPE SHT_PROGBITS, 0
        SECTION_GROUP _ZN16RunningLightMode7ExecuteEv
        DATA
        DC32    _ZN16RunningLightMode7ExecuteEv
        DC32    0
        DC32    0
        DC32    1
        DC32    _ZTI12ILedToggable
        DC32    1
        DC32    1
        DC32    0
        DC32    0

        SECTION `.iar_vfe_header`:DATA:NOALLOC:NOROOT(2)
        SECTION_TYPE SHT_PROGBITS, 0
        DATA
        DC32 0

        SECTION `.rodata`:CONST:REORDER:NOROOT(2)
        SECTION_GROUP _ZTV16RunningLightMode
        DATA
// __absolute void (*const RunningLightMode::__vtbl[4])()
_ZTV16RunningLightMode:
        DATA32
        DC32 0x0, _ZTI16RunningLightMode, _ZN10CommonMode4InitEv
        DC32 _ZN16RunningLightMode7ExecuteEv

        SECTION `.rodata`:CONST:REORDER:NOROOT(2)
        SECTION_GROUP _ZTI12ILedToggable
        DATA
// __absolute __class_type_info const <Typeinfo for ILedToggable>
_ZTI12ILedToggable:
        DATA32
        DC32 _ZTVN10__cxxabiv117__class_type_infoE + 0x8, _ZTS12ILedToggable

        SECTION `.rodata`:CONST:REORDER:NOROOT(2)
        SECTION_GROUP _ZTI5IMode
        DATA
// __absolute __class_type_info const <Typeinfo for IMode>
_ZTI5IMode:
        DATA32
        DC32 _ZTVN10__cxxabiv117__class_type_infoE + 0x8, _ZTS5IMode

        SECTION `.rodata`:CONST:REORDER:NOROOT(2)
        SECTION_GROUP _ZTI16RunningLightMode
        DATA
// __absolute __si_class_type_info const <Typeinfo for RunningLightMode>
_ZTI16RunningLightMode:
        DATA32
        DC32 _ZTVN10__cxxabiv120__si_class_type_infoE + 0x8
        DC32 _ZTS16RunningLightMode, _ZTI10CommonMode

        SECTION `.rodata`:CONST:REORDER:NOROOT(2)
        SECTION_GROUP _ZTS5IMode
        DATA
// __absolute char const <Typeinfo name for IMode>[7]
_ZTS5IMode:
        DATA8
        DC8 "5IMode"
        DS8 1

        SECTION `.rodata`:CONST:REORDER:NOROOT(2)
        SECTION_GROUP _ZTS12ILedToggable
        DATA
// __absolute char const <Typeinfo name for ILedToggable>[15]
_ZTS12ILedToggable:
        DATA8
        DC8 "12ILedToggable"
        DS8 1

        SECTION `.rodata`:CONST:REORDER:NOROOT(2)
        SECTION_GROUP _ZTS16RunningLightMode
        DATA
// __absolute char const <Typeinfo name for RunningLightMode>[19]
_ZTS16RunningLightMode:
        DATA8
        DC8 "16RunningLightMode"
        DS8 1

        SECTION `.rodata`:CONST:REORDER:NOROOT(2)
        SECTION_GROUP _ZTISt10ctype_base
        DATA
// __absolute __class_type_info const <Typeinfo for std::ctype_base>
_ZTISt10ctype_base:
        DATA32
        DC32 _ZTVN10__cxxabiv117__class_type_infoE + 0x8, _ZTSSt10ctype_base

        SECTION `.rodata`:CONST:REORDER:NOROOT(2)
        SECTION_GROUP _ZTSSt10ctype_base
        DATA
// __absolute char const <Typeinfo name for std::ctype_base>[15]
_ZTSSt10ctype_base:
        DATA8
        DC8 "St10ctype_base"
        DS8 1

        END
// 
// 112 bytes in section .rodata
// 108 bytes in section .text
// 
// 84 bytes of CODE  memory (+  24 bytes shared)
//  0 bytes of CONST memory (+ 112 bytes shared)
//
//Errors: none
//Warnings: none
