///////////////////////////////////////////////////////////////////////////////
//
// IAR ANSI C/C++ Compiler V9.50.2.385/W64 for ARM        28/Nov/2025  22:44:15
// Copyright 1999-2024 IAR Systems AB.
//
//    Cpu mode     =  thumb
//    Endian       =  little
//    Source file  =
//        D:\@@@@@@@ @@@@\@@@@@@@@\@@@@@\@@@@@@@@@ @@@@\@@@@@@@@@@@ @@@@@@@@@@@
//        @@@@@@@@@@@@@ @@@@@@@@@\lab2\Lab1\Application\Button\UserButton.cpp
//    Command line =
//        -f "D:\@@@@@@@ @@@@\@@@@@@@@\@@@@@\@@@@@@@@@ @@@@\@@@@@@@@@@@
//        @@@@@@@@@@@ @@@@@@@@@@@@@
//        @@@@@@@@@\lab2\Lab1\Debug\Obj\Button_16955066607175535019.dir\UserButton.o.rsp"
//        ("D:\@@@@@@@ @@@@\@@@@@@@@\@@@@@\@@@@@@@@@ @@@@\@@@@@@@@@@@
//        @@@@@@@@@@@ @@@@@@@@@@@@@
//        @@@@@@@@@\lab2\Lab1\Application\Button\UserButton.cpp" -lC
//        "D:\@@@@@@@ @@@@\@@@@@@@@\@@@@@\@@@@@@@@@ @@@@\@@@@@@@@@@@
//        @@@@@@@@@@@ @@@@@@@@@@@@@
//        @@@@@@@@@\lab2\Lab1\Debug\List\Button_16955066607175535019.dir" -lA
//        "D:\@@@@@@@ @@@@\@@@@@@@@\@@@@@\@@@@@@@@@ @@@@\@@@@@@@@@@@
//        @@@@@@@@@@@ @@@@@@@@@@@@@
//        @@@@@@@@@\lab2\Lab1\Debug\List\Button_16955066607175535019.dir" -o
//        "D:\@@@@@@@ @@@@\@@@@@@@@\@@@@@\@@@@@@@@@ @@@@\@@@@@@@@@@@
//        @@@@@@@@@@@ @@@@@@@@@@@@@
//        @@@@@@@@@\lab2\Lab1\Debug\Obj\Button_16955066607175535019.dir"
//        --no_cse --no_unroll --no_inline --no_code_motion --no_tbaa
//        --no_clustering --no_scheduling --debug --endian=little
//        --cpu=Cortex-M4 -e --fpu=VFPv4_sp --dlib_config
//        E:\IAR_Embedded_Workbench_for_ARM\arm\inc\c\DLib_Config_Normal.h -I
//        "D:\@@@@@@@ @@@@\@@@@@@@@\@@@@@\@@@@@@@@@ @@@@\@@@@@@@@@@@
//        @@@@@@@@@@@ @@@@@@@@@@@@@ @@@@@@@@@\lab2\Lab1\Common\\" -I
//        "D:\@@@@@@@ @@@@\@@@@@@@@\@@@@@\@@@@@@@@@ @@@@\@@@@@@@@@@@
//        @@@@@@@@@@@ @@@@@@@@@@@@@
//        @@@@@@@@@\lab2\Lab1\AHardware\Registers\STM32F411\FieldValues\\" -I
//        "D:\@@@@@@@ @@@@\@@@@@@@@\@@@@@\@@@@@@@@@ @@@@\@@@@@@@@@@@
//        @@@@@@@@@@@ @@@@@@@@@@@@@
//        @@@@@@@@@\lab2\Lab1\AHardware\Registers\STM32F411\\" -I "D:\@@@@@@@
//        @@@@\@@@@@@@@\@@@@@\@@@@@@@@@ @@@@\@@@@@@@@@@@ @@@@@@@@@@@
//        @@@@@@@@@@@@@ @@@@@@@@@\lab2\Lab1\AHardware\Registers\\" -I
//        "D:\@@@@@@@ @@@@\@@@@@@@@\@@@@@\@@@@@@@@@ @@@@\@@@@@@@@@@@
//        @@@@@@@@@@@ @@@@@@@@@@@@@
//        @@@@@@@@@\lab2\Lab1\AHardware\Registers\CortexM4\\" -I "D:\@@@@@@@
//        @@@@\@@@@@@@@\@@@@@\@@@@@@@@@ @@@@\@@@@@@@@@@@ @@@@@@@@@@@
//        @@@@@@@@@@@@@
//        @@@@@@@@@\lab2\Lab1\AHardware\Registers\CortexM4\FieldValues\\" -I
//        "D:\@@@@@@@ @@@@\@@@@@@@@\@@@@@\@@@@@@@@@ @@@@\@@@@@@@@@@@
//        @@@@@@@@@@@ @@@@@@@@@@@@@
//        @@@@@@@@@\lab2\Lab1\Application\Led\Contracts\\" -I "D:\@@@@@@@
//        @@@@\@@@@@@@@\@@@@@\@@@@@@@@@ @@@@\@@@@@@@@@@@ @@@@@@@@@@@
//        @@@@@@@@@@@@@ @@@@@@@@@\lab2\Lab1\Application\Led\\" -I "D:\@@@@@@@
//        @@@@\@@@@@@@@\@@@@@\@@@@@@@@@ @@@@\@@@@@@@@@@@ @@@@@@@@@@@
//        @@@@@@@@@@@@@ @@@@@@@@@\lab2\Lab1\Application\Mode\Contracts\\" -I
//        "D:\@@@@@@@ @@@@\@@@@@@@@\@@@@@\@@@@@@@@@ @@@@\@@@@@@@@@@@
//        @@@@@@@@@@@ @@@@@@@@@@@@@ @@@@@@@@@\lab2\Lab1\Application\Button\\"
//        -I "D:\@@@@@@@ @@@@\@@@@@@@@\@@@@@\@@@@@@@@@ @@@@\@@@@@@@@@@@
//        @@@@@@@@@@@ @@@@@@@@@@@@@
//        @@@@@@@@@\lab2\Lab1\Application\Button\Contrats\\" -I "D:\@@@@@@@
//        @@@@\@@@@@@@@\@@@@@\@@@@@@@@@ @@@@\@@@@@@@@@@@ @@@@@@@@@@@
//        @@@@@@@@@@@@@ @@@@@@@@@\lab2\Lab1\Application\LcdController\\" -I
//        "D:\@@@@@@@ @@@@\@@@@@@@@\@@@@@\@@@@@@@@@ @@@@\@@@@@@@@@@@
//        @@@@@@@@@@@ @@@@@@@@@@@@@
//        @@@@@@@@@\lab2\Lab1\Application\LcdController\Contracts\\" -I
//        "D:\@@@@@@@ @@@@\@@@@@@@@\@@@@@\@@@@@@@@@ @@@@\@@@@@@@@@@@
//        @@@@@@@@@@@ @@@@@@@@@@@@@ @@@@@@@@@\lab2\Lab1\Application\Mode\\" -On
//        --c++ --no_exceptions --no_rtti) --dependencies=n "D:\@@@@@@@
//        @@@@\@@@@@@@@\@@@@@\@@@@@@@@@ @@@@\@@@@@@@@@@@ @@@@@@@@@@@
//        @@@@@@@@@@@@@
//        @@@@@@@@@\lab2\Lab1\Debug\Obj\Button_16955066607175535019.dir\UserButton.o.iar_deps"
//    Locale       =  C
//    List file    =
//        D:\@@@@@@@ @@@@\@@@@@@@@\@@@@@\@@@@@@@@@ @@@@\@@@@@@@@@@@ @@@@@@@@@@@
//        @@@@@@@@@@@@@
//        @@@@@@@@@\lab2\Lab1\Debug\List\Button_16955066607175535019.dir\UserButton.s
//
///////////////////////////////////////////////////////////////////////////////

        RTMODEL "__CPP_Exceptions", "Disabled"
        RTMODEL "__CPP_Language", "C++14"
        RTMODEL "__CPP_Library", "DLib"
        RTMODEL "__CPP_Runtime", "1"
        RTMODEL "__SystemLibrary", "DLib"
        RTMODEL "__dlib_version", "6"
        AAPCS BASE,INTERWORK,VFP
        PRESERVE8
        REQUIRE8

        #define SHT_PROGBITS 0x1

        EXTERN _ZTVN10__cxxabiv117__class_type_infoE
        EXTERN _ZTVN10__cxxabiv120__si_class_type_infoE

        PUBLIC _ZN10UserButtonC1Ejj
        PUBLIC _ZN10UserButtonC2Ejj
        PUBLIC _ZN7IButtonC1Ev
        PUBLIC _ZN7IButtonC2Ev
        PUBLIC _ZNK10UserButton10WasPressedEv
        PUBLIC _ZTI10UserButton
        PUBLIC _ZTI7IButton
        PUBLIC _ZTS10UserButton
        PUBLIC _ZTS7IButton
        PUBLIC _ZTV10UserButton
        
          CFI Names cfiNames0
          CFI StackFrame CFA R13 DATA
          CFI Resource R0:32, R1:32, R2:32, R3:32, R4:32, R5:32, R6:32, R7:32
          CFI Resource R8:32, R9:32, R10:32, R11:32, R12:32, R13:32, R14:32
          CFI Resource D0:64, D1:64, D2:64, D3:64, D4:64, D5:64, D6:64, D7:64
          CFI Resource D8:64, D9:64, D10:64, D11:64, D12:64, D13:64, D14:64
          CFI Resource D15:64
          CFI EndNames cfiNames0
        
          CFI Common cfiCommon0 Using cfiNames0
          CFI CodeAlign 2
          CFI DataAlign 4
          CFI ReturnAddress R14 CODE
          CFI CFA R13+0
          CFI R0 Undefined
          CFI R1 Undefined
          CFI R2 Undefined
          CFI R3 Undefined
          CFI R4 SameValue
          CFI R5 SameValue
          CFI R6 SameValue
          CFI R7 SameValue
          CFI R8 SameValue
          CFI R9 SameValue
          CFI R10 SameValue
          CFI R11 SameValue
          CFI R12 Undefined
          CFI R14 SameValue
          CFI D0 Undefined
          CFI D1 Undefined
          CFI D2 Undefined
          CFI D3 Undefined
          CFI D4 Undefined
          CFI D5 Undefined
          CFI D6 Undefined
          CFI D7 Undefined
          CFI D8 SameValue
          CFI D9 SameValue
          CFI D10 SameValue
          CFI D11 SameValue
          CFI D12 SameValue
          CFI D13 SameValue
          CFI D14 SameValue
          CFI D15 SameValue
          CFI EndCommon cfiCommon0
        
// D:\@@@@@@@ @@@@\@@@@@@@@\@@@@@\@@@@@@@@@ @@@@\@@@@@@@@@@@ @@@@@@@@@@@ @@@@@@@@@@@@@ @@@@@@@@@\lab2\Lab1\Application\Button\UserButton.cpp
//    1 #include "UserButton.h"

        SECTION `.text`:CODE:REORDER:NOROOT(1)
        SECTION_GROUP _ZN7IButtonC2Ev
          CFI Block cfiBlock0 Using cfiCommon0
          CFI Function _ZN7IButtonC2Ev
        THUMB
// __vfp IButton::subobject IButton() noexcept
_ZN7IButtonC2Ev:
        PUSH     {R4,LR}        
          CFI R14 Frame(CFA, -4)
          CFI R4 Frame(CFA, -8)
          CFI CFA R13+8
        MOVS     R4,R0          
        MOVS     R0,R4          
          CFI FunCall _ZN7IButtonC1Ev
        BL       _ZN7IButtonC1Ev
        POP      {R4,PC}        
          CFI EndBlock cfiBlock0
//    2 #include <cstdint>
//    3 

        SECTION `.text`:CODE:NOROOT(1)
          CFI Block cfiBlock1 Using cfiCommon0
          CFI Function _ZN10UserButtonC2Ejj
        THUMB
// __vfp UserButton::subobject UserButton(uint32_t, uint32_t)
_ZN10UserButtonC2Ejj:
        PUSH     {R4,LR}        
          CFI R14 Frame(CFA, -4)
          CFI R4 Frame(CFA, -8)
          CFI CFA R13+8
        MOVS     R4,R0          
        MOVS     R0,R4          
          CFI FunCall _ZN10UserButtonC1Ejj
        BL       _ZN10UserButtonC1Ejj
        POP      {R4,PC}        
          CFI EndBlock cfiBlock1

        SECTION `.text`:CODE:NOROOT(1)
          CFI Block cfiBlock2 Using cfiCommon0
          CFI Function _ZN10UserButtonC1Ejj
        THUMB
//    4 UserButton::UserButton(std::uint32_t pinNum, std::uint32_t registerAddress)
//    5     : mPinNum(pinNum)
//    6     , mRegisterAddress(registerAddress)
//    7 {
_ZN10UserButtonC1Ejj:
        PUSH     {R4-R6,LR}     
          CFI R14 Frame(CFA, -4)
          CFI R6 Frame(CFA, -8)
          CFI R5 Frame(CFA, -12)
          CFI R4 Frame(CFA, -16)
          CFI CFA R13+16
        MOVS     R4,R0          
        MOVS     R5,R1          
        MOVS     R6,R2          
        MOVS     R0,R4          
          CFI FunCall _ZN7IButtonC2Ev
        BL       _ZN7IButtonC2Ev
        LDR.N    R0,??DataTable1
        STR      R0,[R4, #+0]   
        STR      R6,[R4, #+4]   
        STR      R5,[R4, #+8]   
//    8   
//    9 }
        MOVS     R0,R4          
        POP      {R4-R6,PC}     
          CFI EndBlock cfiBlock2

        SECTION `.text`:CODE:NOROOT(2)
        SECTION_TYPE SHT_PROGBITS, 0
        DATA
??DataTable1:
        DATA32
        DC32     _ZTV10UserButton+8
//   10 

        SECTION `.text`:CODE:NOROOT(1)
          CFI Block cfiBlock3 Using cfiCommon0
          CFI Function _ZNK10UserButton10WasPressedEv
          CFI NoCalls
        THUMB
//   11 bool UserButton::WasPressed() const
//   12 {
_ZNK10UserButton10WasPressedEv:
        MOVS     R1,R0          
//   13     bool isButtonPressed = ((*reinterpret_cast<std::uint32_t*>(mRegisterAddress) & (1U << mPinNum)) == 0);
        LDR      R0,[R1, #+4]   
        LDR      R0,[R0, #+0]   
        LDR      R2,[R1, #+8]   
        LSRS     R0,R0,R2       
        ANDS     R0,R0,#0x1     
        EORS     R0,R0,#0x1     
//   14     return isButtonPressed;
        UXTB     R0,R0          
        BX       LR             
//   15 }
          CFI EndBlock cfiBlock3

        SECTION `.text`:CODE:REORDER:NOROOT(1)
        SECTION_GROUP _ZN7IButtonC1Ev
          CFI Block cfiBlock4 Using cfiCommon0
          CFI Function _ZN7IButtonC1Ev
          CFI NoCalls
        THUMB
// __vfp IButton::IButton() noexcept
_ZN7IButtonC1Ev:
        BX       LR             
          CFI EndBlock cfiBlock4

        SECTION `.iar_vfe_vtableinfo_ZTV10UserButton`:DATA:NOALLOC:NOROOT(2)
        SECTION_TYPE SHT_PROGBITS, 0
        SECTION_GROUP _ZTV10UserButton
        DATA
        DC32    _ZTV10UserButton
        DC32    3
        DC32    2
        DC32    _ZTI10UserButton
        DC32    1
        DC32    2
        DC32    0
        DC32    _ZTI7IButton
        DC32    0
        DC32    1
        DC32    _ZTI10UserButton
        DC32    1
        DC32    2
        DC32    0

        SECTION `.iar_vfe_header`:DATA:NOALLOC:NOROOT(2)
        SECTION_TYPE SHT_PROGBITS, 0
        DATA
        DC32 0

        SECTION `.rodata`:CONST:REORDER:NOROOT(2)
        SECTION_GROUP _ZTV10UserButton
        DATA
// __absolute void (*const UserButton::__vtbl[3])()
_ZTV10UserButton:
        DATA32
        DC32 0x0, _ZTI10UserButton, _ZNK10UserButton10WasPressedEv

        SECTION `.rodata`:CONST:REORDER:NOROOT(2)
        SECTION_GROUP _ZTI7IButton
        DATA
// __absolute __class_type_info const <Typeinfo for IButton>
_ZTI7IButton:
        DATA32
        DC32 _ZTVN10__cxxabiv117__class_type_infoE + 0x8, _ZTS7IButton

        SECTION `.rodata`:CONST:REORDER:NOROOT(2)
        SECTION_GROUP _ZTI10UserButton
        DATA
// __absolute __si_class_type_info const <Typeinfo for UserButton>
_ZTI10UserButton:
        DATA32
        DC32 _ZTVN10__cxxabiv120__si_class_type_infoE + 0x8, _ZTS10UserButton
        DC32 _ZTI7IButton

        SECTION `.rodata`:CONST:REORDER:NOROOT(2)
        SECTION_GROUP _ZTS7IButton
        DATA
// __absolute char const <Typeinfo name for IButton>[9]
_ZTS7IButton:
        DATA8
        DC8 "7IButton"
        DATA
        DS8 3

        SECTION `.rodata`:CONST:REORDER:NOROOT(2)
        SECTION_GROUP _ZTS10UserButton
        DATA
// __absolute char const <Typeinfo name for UserButton>[13]
_ZTS10UserButton:
        DATA8
        DC8 "10UserButton"
        DATA
        DS8 3

        END
// 
// 60 bytes in section .rodata
// 78 bytes in section .text
// 
// 64 bytes of CODE  memory (+ 14 bytes shared)
//  0 bytes of CONST memory (+ 60 bytes shared)
//
//Errors: none
//Warnings: none
